; Function Attrs: nounwind uwtable
define internal fastcc void @_jumbleRuleStmt(ptr noundef %0, ptr noundef nonnull readonly captures(none) %1) unnamed_addr #0 {
  %3 = getelementptr inbounds nuw i8, ptr %1, i64 8
  %4 = load ptr, ptr %3, align 8
  tail call fastcc void @_jumbleNode(ptr noundef %0, ptr noundef %4)
  %5 = getelementptr inbounds nuw i8, ptr %1, i64 16
  %6 = load ptr, ptr %5, align 8
  %.not = icmp eq ptr %6, null
  br i1 %.not, label %23, label %7

7:                                                ; preds = %2
  %8 = tail call i64 @strlen(ptr noundef nonnull dereferenceable(1) %6) #8
  %9 = add i64 %8, 1
  %10 = load ptr, ptr %0, align 8
  %11 = getelementptr inbounds nuw i8, ptr %0, i64 8
  %12 = load i64, ptr %11, align 8
  %.not23.i = icmp eq i64 %9, 0
  br i1 %.not23.i, label %AppendJumble.exit, label %.lr.ph.i

.lr.ph.i:                                         ; preds = %7, %16
  %.026.i = phi ptr [ %21, %16 ], [ %6, %7 ]
  %.02125.i = phi i64 [ %22, %16 ], [ %9, %7 ]
  %.02224.i = phi i64 [ %20, %16 ], [ %12, %7 ]
  %13 = icmp ugt i64 %.02224.i, 1023
  br i1 %13, label %14, label %16

14:                                               ; preds = %.lr.ph.i
  %15 = tail call i64 @hash_bytes_extended(ptr noundef %10, i32 noundef 1024, i64 noundef 0) #9
  store i64 %15, ptr %10, align 1
  br label %16

16:                                               ; preds = %14, %.lr.ph.i
  %.1.i = phi i64 [ 8, %14 ], [ %.02224.i, %.lr.ph.i ]
  %17 = sub nuw nsw i64 1024, %.1.i
  %18 = tail call i64 @llvm.umin.i64(i64 %.02125.i, i64 %17)
  %19 = getelementptr inbounds nuw i8, ptr %10, i64 %.1.i
  tail call void @llvm.memcpy.p0.p0.i64(ptr noundef nonnull align 1 dereferenceable(1) %19, ptr noundef nonnull align 1 dereferenceable(1) %.026.i, i64 %18, i1 false)
  %20 = add nuw nsw i64 %18, %.1.i
  %21 = getelementptr inbounds nuw i8, ptr %.026.i, i64 %18
  %22 = sub i64 %.02125.i, %18
  %.not.i = icmp eq i64 %22, 0
  br i1 %.not.i, label %AppendJumble.exit, label %.lr.ph.i, !llvm.loop !7

AppendJumble.exit:                                ; preds = %16, %7
  %.022.lcssa.i = phi i64 [ %12, %7 ], [ %20, %16 ]
  store i64 %.022.lcssa.i, ptr %11, align 8
  br label %23

23:                                               ; preds = %AppendJumble.exit, %2
  %24 = getelementptr inbounds nuw i8, ptr %1, i64 24
  %25 = load ptr, ptr %24, align 8
  tail call fastcc void @_jumbleNode(ptr noundef %0, ptr noundef %25)
  %26 = getelementptr inbounds nuw i8, ptr %1, i64 32
  %27 = load ptr, ptr %0, align 8
  %28 = getelementptr inbounds nuw i8, ptr %0, i64 8
  %29 = load i64, ptr %28, align 8
  br label %.lr.ph.i17

.lr.ph.i17:                                       ; preds = %33, %23
  %.026.i18 = phi ptr [ %38, %33 ], [ %26, %23 ]
  %.02125.i19 = phi i64 [ %39, %33 ], [ 4, %23 ]
  %.02224.i20 = phi i64 [ %37, %33 ], [ %29, %23 ]
  %30 = icmp ugt i64 %.02224.i20, 1023
  br i1 %30, label %31, label %33

31:                                               ; preds = %.lr.ph.i17
  %32 = tail call i64 @hash_bytes_extended(ptr noundef %27, i32 noundef 1024, i64 noundef 0) #9
  store i64 %32, ptr %27, align 1
  br label %33

33:                                               ; preds = %31, %.lr.ph.i17
  %.1.i21 = phi i64 [ 8, %31 ], [ %.02224.i20, %.lr.ph.i17 ]
  %34 = sub nuw nsw i64 1024, %.1.i21
  %35 = tail call i64 @llvm.umin.i64(i64 %.02125.i19, i64 %34)
  %36 = getelementptr inbounds nuw i8, ptr %27, i64 %.1.i21
  tail call void @llvm.memcpy.p0.p0.i64(ptr noundef nonnull align 1 dereferenceable(1) %36, ptr noundef nonnull align 1 dereferenceable(1) %.026.i18, i64 %35, i1 false)
  %37 = add nuw nsw i64 %35, %.1.i21
  %38 = getelementptr inbounds nuw i8, ptr %.026.i18, i64 %35
  %39 = sub i64 %.02125.i19, %35
  %.not.i22 = icmp eq i64 %39, 0
  br i1 %.not.i22, label %AppendJumble.exit24, label %.lr.ph.i17, !llvm.loop !7

AppendJumble.exit24:                              ; preds = %33
  store i64 %37, ptr %28, align 8
  %40 = getelementptr inbounds nuw i8, ptr %1, i64 36
  %41 = load ptr, ptr %0, align 8
  br label %.lr.ph.i25

.lr.ph.i25:                                       ; preds = %45, %AppendJumble.exit24
  %.026.i26 = phi ptr [ %50, %45 ], [ %40, %AppendJumble.exit24 ]
  %.02125.i27 = phi i64 [ %51, %45 ], [ 1, %AppendJumble.exit24 ]
  %.02224.i28 = phi i64 [ %49, %45 ], [ %37, %AppendJumble.exit24 ]
  %42 = icmp ugt i64 %.02224.i28, 1023
  br i1 %42, label %43, label %45

43:                                               ; preds = %.lr.ph.i25
  %44 = tail call i64 @hash_bytes_extended(ptr noundef %41, i32 noundef 1024, i64 noundef 0) #9
  store i64 %44, ptr %41, align 1
  br label %45

45:                                               ; preds = %43, %.lr.ph.i25
  %.1.i29 = phi i64 [ 8, %43 ], [ %.02224.i28, %.lr.ph.i25 ]
  %46 = sub nuw nsw i64 1024, %.1.i29
  %47 = tail call i64 @llvm.umin.i64(i64 %.02125.i27, i64 %46)
  %48 = getelementptr inbounds nuw i8, ptr %41, i64 %.1.i29
  tail call void @llvm.memcpy.p0.p0.i64(ptr noundef nonnull align 1 dereferenceable(1) %48, ptr noundef nonnull align 1 dereferenceable(1) %.026.i26, i64 %47, i1 false)
  %49 = add nuw nsw i64 %47, %.1.i29
  %50 = getelementptr inbounds nuw i8, ptr %.026.i26, i64 %47
  %51 = sub i64 %.02125.i27, %47
  %.not.i30 = icmp eq i64 %51, 0
  br i1 %.not.i30, label %AppendJumble.exit32, label %.lr.ph.i25, !llvm.loop !7

AppendJumble.exit32:                              ; preds = %45
  store i64 %49, ptr %28, align 8
  %52 = getelementptr inbounds nuw i8, ptr %1, i64 40
  %53 = load ptr, ptr %52, align 8
  tail call fastcc void @_jumbleNode(ptr noundef nonnull %0, ptr noundef %53)
  %54 = getelementptr inbounds nuw i8, ptr %1, i64 48
  %55 = load ptr, ptr %0, align 8
  %56 = load i64, ptr %28, align 8
  br label %.lr.ph.i33

.lr.ph.i33:                                       ; preds = %60, %AppendJumble.exit32
  %.026.i34 = phi ptr [ %65, %60 ], [ %54, %AppendJumble.exit32 ]
  %.02125.i35 = phi i64 [ %66, %60 ], [ 1, %AppendJumble.exit32 ]
  %.02224.i36 = phi i64 [ %64, %60 ], [ %56, %AppendJumble.exit32 ]
  %57 = icmp ugt i64 %.02224.i36, 1023
  br i1 %57, label %58, label %60

58:                                               ; preds = %.lr.ph.i33
  %59 = tail call i64 @hash_bytes_extended(ptr noundef %55, i32 noundef 1024, i64 noundef 0) #9
  store i64 %59, ptr %55, align 1
  br label %60

60:                                               ; preds = %58, %.lr.ph.i33
  %.1.i37 = phi i64 [ 8, %58 ], [ %.02224.i36, %.lr.ph.i33 ]
  %61 = sub nuw nsw i64 1024, %.1.i37
  %62 = tail call i64 @llvm.umin.i64(i64 %.02125.i35, i64 %61)
  %63 = getelementptr inbounds nuw i8, ptr %55, i64 %.1.i37
  tail call void @llvm.memcpy.p0.p0.i64(ptr noundef nonnull align 1 dereferenceable(1) %63, ptr noundef nonnull align 1 dereferenceable(1) %.026.i34, i64 %62, i1 false)
  %64 = add nuw nsw i64 %62, %.1.i37
  %65 = getelementptr inbounds nuw i8, ptr %.026.i34, i64 %62
  %66 = sub i64 %.02125.i35, %62
  %.not.i38 = icmp eq i64 %66, 0
  br i1 %.not.i38, label %AppendJumble.exit40, label %.lr.ph.i33, !llvm.loop !7

AppendJumble.exit40:                              ; preds = %60
  store i64 %64, ptr %28, align 8
  ret void
}